target datalayout = "e-m:e-p270:32:32-p271:32:32-p272:64:64-i64:64-i128:128-f80:128-n8:16:32:64-S128"
target triple = "x86_64-unknown-linux-gnu"

%"class.EA::StdC::DateTime" = type <{ i64, i32, [4 x i8] }>

; Function Attrs: mustprogress nounwind uwtable
define dso_local void @_ZN2EA4StdC8DateTime15SetMillisecondsEm(ptr noundef nonnull align 8 dereferenceable(12) %this, i64 noundef %milliseconds) #3 align 2 {
entry:
  %this.addr = alloca ptr, align 8
  %milliseconds.addr = alloca i64, align 8
  store ptr %this, ptr %this.addr, align 8
  store i64 %milliseconds, ptr %milliseconds.addr, align 8
  %this1 = load ptr, ptr %this.addr, align 8
  %0 = load i64, ptr %milliseconds.addr, align 8
  %div = udiv i64 %0, 1000
  %mnSeconds = getelementptr inbounds %"class.EA::StdC::DateTime", ptr %this1, i32 0, i32 0
  store i64 %div, ptr %mnSeconds, align 8
  %1 = load i64, ptr %milliseconds.addr, align 8
  %rem = urem i64 %1, 1000
  %mul = mul i64 %rem, 1000000
  %conv = trunc i64 %mul to i32
  %mnNanosecond = getelementptr inbounds %"class.EA::StdC::DateTime", ptr %this1, i32 0, i32 1
  store i32 %conv, ptr %mnNanosecond, align 8
  ret void
}