; Function Attrs: mustprogress nofree norecurse nosync nounwind willreturn memory(argmem: write) uwtable
define dso_local void @_ZN2EA4StdC8DateTime15SetMillisecondsEm(ptr noundef nonnull writeonly align 8 captures(none) dereferenceable(12) initializes((0, 12)) %this, i64 noundef %milliseconds) local_unnamed_addr #5 align 2 {
entry:
  %div = udiv i64 %milliseconds, 1000
  store i64 %div, ptr %this, align 8
  %rem = urem i64 %milliseconds, 1000
  %0 = trunc nuw nsw i64 %rem to i32
  %conv = mul nuw nsw i32 %0, 1000000
  %mnNanosecond = getelementptr inbounds nuw i8, ptr %this, i64 8
  store i32 %conv, ptr %mnNanosecond, align 8
  ret void
}